; Function Attrs: inlinehint nounwind memory(argmem: write) uwtable
define internal range(i32 0, 2) i32 @coeff_from_nibble_2(i32 noundef %0, ptr noundef writeonly captures(none) %1) #3 {
  %3 = icmp ult i32 %0, 15
  %4 = zext i1 %3 to i32
  %5 = tail call i32 asm "", "=r,0,~{dirflag},~{fpsr},~{flags}"(i32 range(i32 -1, 2) %4) #7, !srcloc !25
  %.not = icmp eq i32 %5, 0
  br i1 %.not, label %20, label %6

6:                                                ; preds = %2
  %7 = mul i32 %0, 13109
  %8 = lshr i32 %7, 16
  %.neg = mul nsw i32 %8, -5
  %9 = add i32 %.neg, %0
  %10 = sub i32 8380419, %9
  %11 = sub i32 2, %9
  %12 = add i32 %9, -8380420
  %13 = and i32 %11, %12
  %.neg.i.i.i.i = ashr i32 %13, 31
  %14 = tail call i32 asm "", "=r,0,~{dirflag},~{fpsr},~{flags}"(i32 range(i32 -1, 1) %.neg.i.i.i.i) #7, !srcloc !25
  %15 = and i32 %14, %10
  %16 = xor i32 %.neg.i.i.i.i, -1
  %17 = tail call i32 asm "", "=r,0,~{dirflag},~{fpsr},~{flags}"(i32 range(i32 -1, 2) %16) #7, !srcloc !25
  %18 = and i32 %17, %11
  %19 = or i32 %18, %15
  store i32 %19, ptr %1, align 4, !tbaa !13
  br label %20

20:                                               ; preds = %2, %6
  %.0 = phi i32 [ 1, %6 ], [ 0, %2 ]
  ret i32 %.0
}